; Function Attrs: mustprogress uwtable
define hidden noundef zeroext i1 @_ZN3smt10theory_str24check_length_consistencyEP4exprS2_(ptr noundef nonnull align 8 dereferenceable(1800) %0, ptr noundef %1, ptr noundef %2) local_unnamed_addr #4 align 2 {
  %4 = getelementptr inbounds nuw i8, ptr %0, i64 144
  %5 = load i32, ptr %4, align 8, !tbaa !164
  %6 = getelementptr inbounds nuw i8, ptr %1, i64 4
  %7 = load i32, ptr %6, align 4
  %8 = and i32 %7, 65535
  %9 = icmp eq i32 %8, 0
  br i1 %9, label %10, label %_ZNK8seq_util3str9is_stringEPK4expr.exit17.thread

10:                                               ; preds = %3
  %11 = getelementptr inbounds nuw i8, ptr %1, i64 16
  %12 = load ptr, ptr %11, align 8, !tbaa !854
  %13 = getelementptr inbounds nuw i8, ptr %12, i64 24
  %14 = load ptr, ptr %13, align 8, !tbaa !855
  %.not.i.i.i.i = icmp eq ptr %14, null
  br i1 %.not.i.i.i.i, label %_ZNK8seq_util3str9is_stringEPK4expr.exit17.thread, label %_ZNK8seq_util3str9is_stringEPK4expr.exit

_ZNK8seq_util3str9is_stringEPK4expr.exit:         ; preds = %10
  %15 = load i32, ptr %14, align 8, !tbaa !858
  %16 = icmp eq i32 %15, %5
  %17 = getelementptr inbounds nuw i8, ptr %14, i64 4
  %18 = load i32, ptr %17, align 4
  %19 = icmp eq i32 %18, 41
  %20 = select i1 %16, i1 %19, i1 false
  br i1 %20, label %21, label %_ZNK8seq_util3str9is_stringEPK4expr.exit17

21:                                               ; preds = %_ZNK8seq_util3str9is_stringEPK4expr.exit
  %22 = getelementptr inbounds nuw i8, ptr %2, i64 4
  %23 = load i32, ptr %22, align 4
  %24 = and i32 %23, 65535
  %25 = icmp eq i32 %24, 0
  br i1 %25, label %26, label %_ZNK8seq_util3str9is_stringEPK4expr.exit17

26:                                               ; preds = %21
  %27 = getelementptr inbounds nuw i8, ptr %2, i64 16
  %28 = load ptr, ptr %27, align 8, !tbaa !854
  %29 = getelementptr inbounds nuw i8, ptr %28, i64 24
  %30 = load ptr, ptr %29, align 8, !tbaa !855
  %.not.i.i.i.i14 = icmp eq ptr %30, null
  br i1 %.not.i.i.i.i14, label %_ZNK8seq_util3str9is_stringEPK4expr.exit17, label %_ZNK8seq_util3str9is_stringEPK4expr.exit15

_ZNK8seq_util3str9is_stringEPK4expr.exit15:       ; preds = %26
  %31 = load i32, ptr %30, align 8, !tbaa !858
  %32 = icmp eq i32 %31, %5
  %33 = getelementptr inbounds nuw i8, ptr %30, i64 4
  %34 = load i32, ptr %33, align 4
  %35 = icmp eq i32 %34, 41
  %36 = select i1 %32, i1 %35, i1 false
  br i1 %36, label %89, label %_ZNK8seq_util3str9is_stringEPK4expr.exit17

_ZNK8seq_util3str9is_stringEPK4expr.exit17:       ; preds = %26, %21, %_ZNK8seq_util3str9is_stringEPK4expr.exit, %_ZNK8seq_util3str9is_stringEPK4expr.exit15
  %37 = load i32, ptr %14, align 8, !tbaa !858
  %38 = icmp eq i32 %37, %5
  %39 = getelementptr inbounds nuw i8, ptr %14, i64 4
  %40 = load i32, ptr %39, align 4
  %41 = icmp eq i32 %40, 41
  %42 = select i1 %38, i1 %41, i1 false
  br i1 %42, label %43, label %_ZNK8seq_util3str9is_stringEPK4expr.exit17.thread

43:                                               ; preds = %_ZNK8seq_util3str9is_stringEPK4expr.exit17
  %44 = getelementptr inbounds nuw i8, ptr %2, i64 4
  %45 = load i32, ptr %44, align 4
  %46 = and i32 %45, 65535
  %47 = icmp eq i32 %46, 0
  br i1 %47, label %48, label %_ZNK8seq_util3str9is_stringEPK4expr.exit19.thread

48:                                               ; preds = %43
  %49 = getelementptr inbounds nuw i8, ptr %2, i64 16
  %50 = load ptr, ptr %49, align 8, !tbaa !854
  %51 = getelementptr inbounds nuw i8, ptr %50, i64 24
  %52 = load ptr, ptr %51, align 8, !tbaa !855
  %.not.i.i.i.i18 = icmp eq ptr %52, null
  br i1 %.not.i.i.i.i18, label %_ZNK8seq_util3str9is_stringEPK4expr.exit19.thread, label %_ZNK8seq_util3str9is_stringEPK4expr.exit19

_ZNK8seq_util3str9is_stringEPK4expr.exit19:       ; preds = %48
  %53 = load i32, ptr %52, align 8, !tbaa !858
  %54 = icmp eq i32 %53, %5
  %55 = getelementptr inbounds nuw i8, ptr %52, i64 4
  %56 = load i32, ptr %55, align 4
  %57 = icmp eq i32 %56, 41
  %58 = select i1 %54, i1 %57, i1 false
  br i1 %58, label %_ZNK8seq_util3str9is_stringEPK4expr.exit17.thread, label %_ZNK8seq_util3str9is_stringEPK4expr.exit19.thread

_ZNK8seq_util3str9is_stringEPK4expr.exit19.thread: ; preds = %48, %43, %_ZNK8seq_util3str9is_stringEPK4expr.exit19
  %59 = tail call noundef zeroext i1 @_ZN3smt10theory_str25check_length_const_stringEP4exprS2_(ptr noundef nonnull align 8 dereferenceable(1800) %0, ptr noundef nonnull %2, ptr noundef nonnull %1)
  br label %89

_ZNK8seq_util3str9is_stringEPK4expr.exit17.thread: ; preds = %10, %3, %_ZNK8seq_util3str9is_stringEPK4expr.exit19, %_ZNK8seq_util3str9is_stringEPK4expr.exit17
  %60 = getelementptr inbounds nuw i8, ptr %2, i64 4
  %61 = load i32, ptr %60, align 4
  %62 = and i32 %61, 65535
  %63 = icmp eq i32 %62, 0
  br i1 %63, label %64, label %_ZNK8seq_util3str9is_stringEPK4expr.exit21.thread

64:                                               ; preds = %_ZNK8seq_util3str9is_stringEPK4expr.exit17.thread
  %65 = getelementptr inbounds nuw i8, ptr %2, i64 16
  %66 = load ptr, ptr %65, align 8, !tbaa !854
  %67 = getelementptr inbounds nuw i8, ptr %66, i64 24
  %68 = load ptr, ptr %67, align 8, !tbaa !855
  %.not.i.i.i.i20 = icmp eq ptr %68, null
  br i1 %.not.i.i.i.i20, label %_ZNK8seq_util3str9is_stringEPK4expr.exit21.thread, label %_ZNK8seq_util3str9is_stringEPK4expr.exit21

_ZNK8seq_util3str9is_stringEPK4expr.exit21:       ; preds = %64
  %69 = load i32, ptr %68, align 8, !tbaa !858
  %70 = icmp eq i32 %69, %5
  %71 = getelementptr inbounds nuw i8, ptr %68, i64 4
  %72 = load i32, ptr %71, align 4
  %73 = icmp eq i32 %72, 41
  %74 = select i1 %70, i1 %73, i1 false
  br i1 %74, label %75, label %_ZNK8seq_util3str9is_stringEPK4expr.exit21.thread

75:                                               ; preds = %_ZNK8seq_util3str9is_stringEPK4expr.exit21
  br i1 %9, label %76, label %_ZNK8seq_util3str9is_stringEPK4expr.exit23.thread

76:                                               ; preds = %75
  %77 = getelementptr inbounds nuw i8, ptr %1, i64 16
  %78 = load ptr, ptr %77, align 8, !tbaa !854
  %79 = getelementptr inbounds nuw i8, ptr %78, i64 24
  %80 = load ptr, ptr %79, align 8, !tbaa !855
  %.not.i.i.i.i22 = icmp eq ptr %80, null
  br i1 %.not.i.i.i.i22, label %_ZNK8seq_util3str9is_stringEPK4expr.exit23.thread, label %_ZNK8seq_util3str9is_stringEPK4expr.exit23

_ZNK8seq_util3str9is_stringEPK4expr.exit23:       ; preds = %76
  %81 = load i32, ptr %80, align 8, !tbaa !858
  %82 = icmp eq i32 %81, %5
  %83 = getelementptr inbounds nuw i8, ptr %80, i64 4
  %84 = load i32, ptr %83, align 4
  %85 = icmp eq i32 %84, 41
  %86 = select i1 %82, i1 %85, i1 false
  br i1 %86, label %_ZNK8seq_util3str9is_stringEPK4expr.exit21.thread, label %_ZNK8seq_util3str9is_stringEPK4expr.exit23.thread

_ZNK8seq_util3str9is_stringEPK4expr.exit23.thread: ; preds = %76, %75, %_ZNK8seq_util3str9is_stringEPK4expr.exit23
  %87 = tail call noundef zeroext i1 @_ZN3smt10theory_str25check_length_const_stringEP4exprS2_(ptr noundef nonnull align 8 dereferenceable(1800) %0, ptr noundef nonnull %1, ptr noundef nonnull %2)
  br label %89

_ZNK8seq_util3str9is_stringEPK4expr.exit21.thread: ; preds = %64, %_ZNK8seq_util3str9is_stringEPK4expr.exit17.thread, %_ZNK8seq_util3str9is_stringEPK4expr.exit23, %_ZNK8seq_util3str9is_stringEPK4expr.exit21
  %88 = tail call noundef zeroext i1 @_ZN3smt10theory_str26check_length_eq_var_concatEP4exprS2_(ptr noundef nonnull align 8 dereferenceable(1800) %0, ptr noundef nonnull %1, ptr noundef nonnull %2)
  br label %89

89:                                               ; preds = %_ZNK8seq_util3str9is_stringEPK4expr.exit15, %_ZNK8seq_util3str9is_stringEPK4expr.exit21.thread, %_ZNK8seq_util3str9is_stringEPK4expr.exit23.thread, %_ZNK8seq_util3str9is_stringEPK4expr.exit19.thread
  %.0 = phi i1 [ %88, %_ZNK8seq_util3str9is_stringEPK4expr.exit21.thread ], [ %87, %_ZNK8seq_util3str9is_stringEPK4expr.exit23.thread ], [ %59, %_ZNK8seq_util3str9is_stringEPK4expr.exit19.thread ], [ true, %_ZNK8seq_util3str9is_stringEPK4expr.exit15 ]
  ret i1 %.0
}